target datalayout = "e-m:e-p270:32:32-p271:32:32-p272:64:64-i64:64-i128:128-f80:128-n8:16:32:64-S128"
target triple = "x86_64-pc-linux-gnu"

%struct.mbedtls_md_context_t = type { ptr, ptr, ptr }

; Function Attrs: nounwind uwtable
define internal i32 @hash_mprime(ptr noundef %0, i64 noundef %1, ptr noundef %2, i64 noundef %3, ptr noundef %4, i32 noundef %5) #0 {
  %7 = alloca i32, align 4
  %8 = alloca ptr, align 8
  %9 = alloca i64, align 8
  %10 = alloca ptr, align 8
  %11 = alloca i64, align 8
  %12 = alloca ptr, align 8
  %13 = alloca i32, align 4
  %14 = alloca [8 x i8], align 1
  %15 = alloca %struct.mbedtls_md_context_t, align 8
  %16 = alloca i32, align 4
  %17 = alloca ptr, align 8
  %18 = alloca i32, align 4
  store ptr %0, ptr %8, align 8, !tbaa !8
  store i64 %1, ptr %9, align 8, !tbaa !10
  store ptr %2, ptr %10, align 8, !tbaa !8
  store i64 %3, ptr %11, align 8, !tbaa !10
  store ptr %4, ptr %12, align 8, !tbaa !8
  store i32 %5, ptr %13, align 4, !tbaa !12
  call void @llvm.lifetime.start.p0(i64 8, ptr %14) #9
  call void @llvm.memset.p0.i64(ptr align 1 %14, i8 0, i64 8, i1 false)
  call void @llvm.lifetime.start.p0(i64 24, ptr %15) #9
  call void @llvm.lifetime.start.p0(i64 4, ptr %16) #9
  store i32 -110, ptr %16, align 4, !tbaa !12
  call void @llvm.lifetime.start.p0(i64 8, ptr %17) #9
  %19 = load i32, ptr %13, align 4, !tbaa !12
  %20 = call ptr @mbedtls_md_info_from_type(i32 noundef %19)
  store ptr %20, ptr %17, align 8, !tbaa !34
  %21 = load ptr, ptr %17, align 8, !tbaa !34
  %22 = icmp eq ptr %21, null
  br i1 %22, label %23, label %24

23:                                               ; preds = %6
  store i32 -16512, ptr %7, align 4
  store i32 1, ptr %18, align 4
  br label %58

24:                                               ; preds = %6
  call void @mbedtls_md_init(ptr noundef %15)
  %25 = load ptr, ptr %17, align 8, !tbaa !34
  %26 = call i32 @mbedtls_md_setup(ptr noundef %15, ptr noundef %25, i32 noundef 0)
  store i32 %26, ptr %16, align 4, !tbaa !12
  %27 = icmp ne i32 %26, 0
  br i1 %27, label %28, label %29

28:                                               ; preds = %24
  br label %56

29:                                               ; preds = %24
  %30 = call i32 @mbedtls_md_starts(ptr noundef %15)
  store i32 %30, ptr %16, align 4, !tbaa !12
  %31 = icmp ne i32 %30, 0
  br i1 %31, label %32, label %33

32:                                               ; preds = %29
  br label %56

33:                                               ; preds = %29
  %34 = getelementptr inbounds [8 x i8], ptr %14, i64 0, i64 0
  %35 = call i32 @mbedtls_md_update(ptr noundef %15, ptr noundef %34, i64 noundef 8)
  store i32 %35, ptr %16, align 4, !tbaa !12
  %36 = icmp ne i32 %35, 0
  br i1 %36, label %37, label %38

37:                                               ; preds = %33
  br label %56

38:                                               ; preds = %33
  %39 = load ptr, ptr %8, align 8, !tbaa !8
  %40 = load i64, ptr %9, align 8, !tbaa !10
  %41 = call i32 @mbedtls_md_update(ptr noundef %15, ptr noundef %39, i64 noundef %40)
  store i32 %41, ptr %16, align 4, !tbaa !12
  %42 = icmp ne i32 %41, 0
  br i1 %42, label %43, label %44

43:                                               ; preds = %38
  br label %56

44:                                               ; preds = %38
  %45 = load ptr, ptr %10, align 8, !tbaa !8
  %46 = load i64, ptr %11, align 8, !tbaa !10
  %47 = call i32 @mbedtls_md_update(ptr noundef %15, ptr noundef %45, i64 noundef %46)
  store i32 %47, ptr %16, align 4, !tbaa !12
  %48 = icmp ne i32 %47, 0
  br i1 %48, label %49, label %50

49:                                               ; preds = %44
  br label %56

50:                                               ; preds = %44
  %51 = load ptr, ptr %12, align 8, !tbaa !8
  %52 = call i32 @mbedtls_md_finish(ptr noundef %15, ptr noundef %51)
  store i32 %52, ptr %16, align 4, !tbaa !12
  %53 = icmp ne i32 %52, 0
  br i1 %53, label %54, label %55

54:                                               ; preds = %50
  br label %56

55:                                               ; preds = %50
  br label %56

56:                                               ; preds = %55, %54, %49, %43, %37, %32, %28
  call void @mbedtls_md_free(ptr noundef %15)
  %57 = load i32, ptr %16, align 4, !tbaa !12
  store i32 %57, ptr %7, align 4
  store i32 1, ptr %18, align 4
  br label %58

58:                                               ; preds = %56, %23
  call void @llvm.lifetime.end.p0(i64 8, ptr %17) #9
  call void @llvm.lifetime.end.p0(i64 4, ptr %16) #9
  call void @llvm.lifetime.end.p0(i64 24, ptr %15) #9
  call void @llvm.lifetime.end.p0(i64 8, ptr %14) #9
  %59 = load i32, ptr %7, align 4
  ret i32 %59
}