; Function Attrs: nounwind uwtable
define internal fastcc i32 @hash_mprime(ptr noundef %0, i64 noundef range(i64 0, 4294967296) %1, ptr noundef %2, i64 noundef %3, ptr noundef %4, i32 noundef %5) unnamed_addr #0 {
  %7 = alloca [8 x i8], align 8
  %8 = alloca %struct.mbedtls_md_context_t, align 8
  call void @llvm.lifetime.start.p0(i64 8, ptr nonnull %7) #14
  store i64 0, ptr %7, align 8
  call void @llvm.lifetime.start.p0(i64 24, ptr nonnull %8) #14
  %9 = tail call ptr @mbedtls_md_info_from_type(i32 noundef %5) #14
  %10 = icmp eq ptr %9, null
  br i1 %10, label %24, label %11

11:                                               ; preds = %6
  call void @mbedtls_md_init(ptr noundef nonnull %8) #14
  %12 = call i32 @mbedtls_md_setup(ptr noundef nonnull %8, ptr noundef nonnull %9, i32 noundef 0) #14
  %.not = icmp eq i32 %12, 0
  br i1 %.not, label %13, label %23

13:                                               ; preds = %11
  %14 = call i32 @mbedtls_md_starts(ptr noundef nonnull %8) #14
  %.not16 = icmp eq i32 %14, 0
  br i1 %.not16, label %15, label %23

15:                                               ; preds = %13
  %16 = call i32 @mbedtls_md_update(ptr noundef nonnull %8, ptr noundef nonnull %7, i64 noundef 8) #14
  %.not17 = icmp eq i32 %16, 0
  br i1 %.not17, label %17, label %23

17:                                               ; preds = %15
  %18 = call i32 @mbedtls_md_update(ptr noundef nonnull %8, ptr noundef %0, i64 noundef %1) #14
  %.not18 = icmp eq i32 %18, 0
  br i1 %.not18, label %19, label %23

19:                                               ; preds = %17
  %20 = call i32 @mbedtls_md_update(ptr noundef nonnull %8, ptr noundef %2, i64 noundef %3) #14
  %.not19 = icmp eq i32 %20, 0
  br i1 %.not19, label %21, label %23

21:                                               ; preds = %19
  %22 = call i32 @mbedtls_md_finish(ptr noundef nonnull %8, ptr noundef %4) #14
  br label %23

23:                                               ; preds = %21, %19, %17, %15, %13, %11
  %.09 = phi i32 [ %12, %11 ], [ %14, %13 ], [ %16, %15 ], [ %18, %17 ], [ %20, %19 ], [ %22, %21 ]
  call void @mbedtls_md_free(ptr noundef nonnull %8) #14
  br label %24

24:                                               ; preds = %6, %23
  %.0 = phi i32 [ %.09, %23 ], [ -16512, %6 ]
  call void @llvm.lifetime.end.p0(i64 24, ptr nonnull %8) #14
  call void @llvm.lifetime.end.p0(i64 8, ptr nonnull %7) #14
  ret i32 %.0
}